target datalayout = "e-m:e-p270:32:32-p271:32:32-p272:64:64-i64:64-i128:128-f80:128-n8:16:32:64-S128"
target triple = "x86_64-pc-linux-gnu"

%struct.HEVCPredContext = type { [4 x ptr], [4 x ptr], ptr, [4 x ptr] }

; Function Attrs: nounwind uwtable
define void @ff_hevc_pred_init(ptr noundef %0, i32 noundef %1) #0 {
  %3 = alloca ptr, align 8
  %4 = alloca i32, align 4
  store ptr %0, ptr %3, align 8, !tbaa !4
  store i32 %1, ptr %4, align 4, !tbaa !9
  %5 = load i32, ptr %4, align 4, !tbaa !9
  switch i32 %5, label %123 [
    i32 9, label %6
    i32 10, label %45
    i32 12, label %84
  ]

6:                                                ; preds = %2
  %7 = load ptr, ptr %3, align 8, !tbaa !4
  %8 = getelementptr inbounds nuw %struct.HEVCPredContext, ptr %7, i32 0, i32 0
  %9 = getelementptr inbounds [4 x ptr], ptr %8, i64 0, i64 0
  store ptr @intra_pred_2_9, ptr %9, align 8, !tbaa !11
  %10 = load ptr, ptr %3, align 8, !tbaa !4
  %11 = getelementptr inbounds nuw %struct.HEVCPredContext, ptr %10, i32 0, i32 0
  %12 = getelementptr inbounds [4 x ptr], ptr %11, i64 0, i64 1
  store ptr @intra_pred_3_9, ptr %12, align 8, !tbaa !11
  %13 = load ptr, ptr %3, align 8, !tbaa !4
  %14 = getelementptr inbounds nuw %struct.HEVCPredContext, ptr %13, i32 0, i32 0
  %15 = getelementptr inbounds [4 x ptr], ptr %14, i64 0, i64 2
  store ptr @intra_pred_4_9, ptr %15, align 8, !tbaa !11
  %16 = load ptr, ptr %3, align 8, !tbaa !4
  %17 = getelementptr inbounds nuw %struct.HEVCPredContext, ptr %16, i32 0, i32 0
  %18 = getelementptr inbounds [4 x ptr], ptr %17, i64 0, i64 3
  store ptr @intra_pred_5_9, ptr %18, align 8, !tbaa !11
  %19 = load ptr, ptr %3, align 8, !tbaa !4
  %20 = getelementptr inbounds nuw %struct.HEVCPredContext, ptr %19, i32 0, i32 1
  %21 = getelementptr inbounds [4 x ptr], ptr %20, i64 0, i64 0
  store ptr @pred_planar_0_9, ptr %21, align 8, !tbaa !11
  %22 = load ptr, ptr %3, align 8, !tbaa !4
  %23 = getelementptr inbounds nuw %struct.HEVCPredContext, ptr %22, i32 0, i32 1
  %24 = getelementptr inbounds [4 x ptr], ptr %23, i64 0, i64 1
  store ptr @pred_planar_1_9, ptr %24, align 8, !tbaa !11
  %25 = load ptr, ptr %3, align 8, !tbaa !4
  %26 = getelementptr inbounds nuw %struct.HEVCPredContext, ptr %25, i32 0, i32 1
  %27 = getelementptr inbounds [4 x ptr], ptr %26, i64 0, i64 2
  store ptr @pred_planar_2_9, ptr %27, align 8, !tbaa !11
  %28 = load ptr, ptr %3, align 8, !tbaa !4
  %29 = getelementptr inbounds nuw %struct.HEVCPredContext, ptr %28, i32 0, i32 1
  %30 = getelementptr inbounds [4 x ptr], ptr %29, i64 0, i64 3
  store ptr @pred_planar_3_9, ptr %30, align 8, !tbaa !11
  %31 = load ptr, ptr %3, align 8, !tbaa !4
  %32 = getelementptr inbounds nuw %struct.HEVCPredContext, ptr %31, i32 0, i32 2
  store ptr @pred_dc_9, ptr %32, align 8, !tbaa !12
  %33 = load ptr, ptr %3, align 8, !tbaa !4
  %34 = getelementptr inbounds nuw %struct.HEVCPredContext, ptr %33, i32 0, i32 3
  %35 = getelementptr inbounds [4 x ptr], ptr %34, i64 0, i64 0
  store ptr @pred_angular_0_9, ptr %35, align 8, !tbaa !11
  %36 = load ptr, ptr %3, align 8, !tbaa !4
  %37 = getelementptr inbounds nuw %struct.HEVCPredContext, ptr %36, i32 0, i32 3
  %38 = getelementptr inbounds [4 x ptr], ptr %37, i64 0, i64 1
  store ptr @pred_angular_1_9, ptr %38, align 8, !tbaa !11
  %39 = load ptr, ptr %3, align 8, !tbaa !4
  %40 = getelementptr inbounds nuw %struct.HEVCPredContext, ptr %39, i32 0, i32 3
  %41 = getelementptr inbounds [4 x ptr], ptr %40, i64 0, i64 2
  store ptr @pred_angular_2_9, ptr %41, align 8, !tbaa !11
  %42 = load ptr, ptr %3, align 8, !tbaa !4
  %43 = getelementptr inbounds nuw %struct.HEVCPredContext, ptr %42, i32 0, i32 3
  %44 = getelementptr inbounds [4 x ptr], ptr %43, i64 0, i64 3
  store ptr @pred_angular_3_9, ptr %44, align 8, !tbaa !11
  br label %162

45:                                               ; preds = %2
  %46 = load ptr, ptr %3, align 8, !tbaa !4
  %47 = getelementptr inbounds nuw %struct.HEVCPredContext, ptr %46, i32 0, i32 0
  %48 = getelementptr inbounds [4 x ptr], ptr %47, i64 0, i64 0
  store ptr @intra_pred_2_10, ptr %48, align 8, !tbaa !11
  %49 = load ptr, ptr %3, align 8, !tbaa !4
  %50 = getelementptr inbounds nuw %struct.HEVCPredContext, ptr %49, i32 0, i32 0
  %51 = getelementptr inbounds [4 x ptr], ptr %50, i64 0, i64 1
  store ptr @intra_pred_3_10, ptr %51, align 8, !tbaa !11
  %52 = load ptr, ptr %3, align 8, !tbaa !4
  %53 = getelementptr inbounds nuw %struct.HEVCPredContext, ptr %52, i32 0, i32 0
  %54 = getelementptr inbounds [4 x ptr], ptr %53, i64 0, i64 2
  store ptr @intra_pred_4_10, ptr %54, align 8, !tbaa !11
  %55 = load ptr, ptr %3, align 8, !tbaa !4
  %56 = getelementptr inbounds nuw %struct.HEVCPredContext, ptr %55, i32 0, i32 0
  %57 = getelementptr inbounds [4 x ptr], ptr %56, i64 0, i64 3
  store ptr @intra_pred_5_10, ptr %57, align 8, !tbaa !11
  %58 = load ptr, ptr %3, align 8, !tbaa !4
  %59 = getelementptr inbounds nuw %struct.HEVCPredContext, ptr %58, i32 0, i32 1
  %60 = getelementptr inbounds [4 x ptr], ptr %59, i64 0, i64 0
  store ptr @pred_planar_0_10, ptr %60, align 8, !tbaa !11
  %61 = load ptr, ptr %3, align 8, !tbaa !4
  %62 = getelementptr inbounds nuw %struct.HEVCPredContext, ptr %61, i32 0, i32 1
  %63 = getelementptr inbounds [4 x ptr], ptr %62, i64 0, i64 1
  store ptr @pred_planar_1_10, ptr %63, align 8, !tbaa !11
  %64 = load ptr, ptr %3, align 8, !tbaa !4
  %65 = getelementptr inbounds nuw %struct.HEVCPredContext, ptr %64, i32 0, i32 1
  %66 = getelementptr inbounds [4 x ptr], ptr %65, i64 0, i64 2
  store ptr @pred_planar_2_10, ptr %66, align 8, !tbaa !11
  %67 = load ptr, ptr %3, align 8, !tbaa !4
  %68 = getelementptr inbounds nuw %struct.HEVCPredContext, ptr %67, i32 0, i32 1
  %69 = getelementptr inbounds [4 x ptr], ptr %68, i64 0, i64 3
  store ptr @pred_planar_3_10, ptr %69, align 8, !tbaa !11
  %70 = load ptr, ptr %3, align 8, !tbaa !4
  %71 = getelementptr inbounds nuw %struct.HEVCPredContext, ptr %70, i32 0, i32 2
  store ptr @pred_dc_10, ptr %71, align 8, !tbaa !12
  %72 = load ptr, ptr %3, align 8, !tbaa !4
  %73 = getelementptr inbounds nuw %struct.HEVCPredContext, ptr %72, i32 0, i32 3
  %74 = getelementptr inbounds [4 x ptr], ptr %73, i64 0, i64 0
  store ptr @pred_angular_0_10, ptr %74, align 8, !tbaa !11
  %75 = load ptr, ptr %3, align 8, !tbaa !4
  %76 = getelementptr inbounds nuw %struct.HEVCPredContext, ptr %75, i32 0, i32 3
  %77 = getelementptr inbounds [4 x ptr], ptr %76, i64 0, i64 1
  store ptr @pred_angular_1_10, ptr %77, align 8, !tbaa !11
  %78 = load ptr, ptr %3, align 8, !tbaa !4
  %79 = getelementptr inbounds nuw %struct.HEVCPredContext, ptr %78, i32 0, i32 3
  %80 = getelementptr inbounds [4 x ptr], ptr %79, i64 0, i64 2
  store ptr @pred_angular_2_10, ptr %80, align 8, !tbaa !11
  %81 = load ptr, ptr %3, align 8, !tbaa !4
  %82 = getelementptr inbounds nuw %struct.HEVCPredContext, ptr %81, i32 0, i32 3
  %83 = getelementptr inbounds [4 x ptr], ptr %82, i64 0, i64 3
  store ptr @pred_angular_3_10, ptr %83, align 8, !tbaa !11
  br label %162

84:                                               ; preds = %2
  %85 = load ptr, ptr %3, align 8, !tbaa !4
  %86 = getelementptr inbounds nuw %struct.HEVCPredContext, ptr %85, i32 0, i32 0
  %87 = getelementptr inbounds [4 x ptr], ptr %86, i64 0, i64 0
  store ptr @intra_pred_2_12, ptr %87, align 8, !tbaa !11
  %88 = load ptr, ptr %3, align 8, !tbaa !4
  %89 = getelementptr inbounds nuw %struct.HEVCPredContext, ptr %88, i32 0, i32 0
  %90 = getelementptr inbounds [4 x ptr], ptr %89, i64 0, i64 1
  store ptr @intra_pred_3_12, ptr %90, align 8, !tbaa !11
  %91 = load ptr, ptr %3, align 8, !tbaa !4
  %92 = getelementptr inbounds nuw %struct.HEVCPredContext, ptr %91, i32 0, i32 0
  %93 = getelementptr inbounds [4 x ptr], ptr %92, i64 0, i64 2
  store ptr @intra_pred_4_12, ptr %93, align 8, !tbaa !11
  %94 = load ptr, ptr %3, align 8, !tbaa !4
  %95 = getelementptr inbounds nuw %struct.HEVCPredContext, ptr %94, i32 0, i32 0
  %96 = getelementptr inbounds [4 x ptr], ptr %95, i64 0, i64 3
  store ptr @intra_pred_5_12, ptr %96, align 8, !tbaa !11
  %97 = load ptr, ptr %3, align 8, !tbaa !4
  %98 = getelementptr inbounds nuw %struct.HEVCPredContext, ptr %97, i32 0, i32 1
  %99 = getelementptr inbounds [4 x ptr], ptr %98, i64 0, i64 0
  store ptr @pred_planar_0_12, ptr %99, align 8, !tbaa !11
  %100 = load ptr, ptr %3, align 8, !tbaa !4
  %101 = getelementptr inbounds nuw %struct.HEVCPredContext, ptr %100, i32 0, i32 1
  %102 = getelementptr inbounds [4 x ptr], ptr %101, i64 0, i64 1
  store ptr @pred_planar_1_12, ptr %102, align 8, !tbaa !11
  %103 = load ptr, ptr %3, align 8, !tbaa !4
  %104 = getelementptr inbounds nuw %struct.HEVCPredContext, ptr %103, i32 0, i32 1
  %105 = getelementptr inbounds [4 x ptr], ptr %104, i64 0, i64 2
  store ptr @pred_planar_2_12, ptr %105, align 8, !tbaa !11
  %106 = load ptr, ptr %3, align 8, !tbaa !4
  %107 = getelementptr inbounds nuw %struct.HEVCPredContext, ptr %106, i32 0, i32 1
  %108 = getelementptr inbounds [4 x ptr], ptr %107, i64 0, i64 3
  store ptr @pred_planar_3_12, ptr %108, align 8, !tbaa !11
  %109 = load ptr, ptr %3, align 8, !tbaa !4
  %110 = getelementptr inbounds nuw %struct.HEVCPredContext, ptr %109, i32 0, i32 2
  store ptr @pred_dc_12, ptr %110, align 8, !tbaa !12
  %111 = load ptr, ptr %3, align 8, !tbaa !4
  %112 = getelementptr inbounds nuw %struct.HEVCPredContext, ptr %111, i32 0, i32 3
  %113 = getelementptr inbounds [4 x ptr], ptr %112, i64 0, i64 0
  store ptr @pred_angular_0_12, ptr %113, align 8, !tbaa !11
  %114 = load ptr, ptr %3, align 8, !tbaa !4
  %115 = getelementptr inbounds nuw %struct.HEVCPredContext, ptr %114, i32 0, i32 3
  %116 = getelementptr inbounds [4 x ptr], ptr %115, i64 0, i64 1
  store ptr @pred_angular_1_12, ptr %116, align 8, !tbaa !11
  %117 = load ptr, ptr %3, align 8, !tbaa !4
  %118 = getelementptr inbounds nuw %struct.HEVCPredContext, ptr %117, i32 0, i32 3
  %119 = getelementptr inbounds [4 x ptr], ptr %118, i64 0, i64 2
  store ptr @pred_angular_2_12, ptr %119, align 8, !tbaa !11
  %120 = load ptr, ptr %3, align 8, !tbaa !4
  %121 = getelementptr inbounds nuw %struct.HEVCPredContext, ptr %120, i32 0, i32 3
  %122 = getelementptr inbounds [4 x ptr], ptr %121, i64 0, i64 3
  store ptr @pred_angular_3_12, ptr %122, align 8, !tbaa !11
  br label %162

123:                                              ; preds = %2
  %124 = load ptr, ptr %3, align 8, !tbaa !4
  %125 = getelementptr inbounds nuw %struct.HEVCPredContext, ptr %124, i32 0, i32 0
  %126 = getelementptr inbounds [4 x ptr], ptr %125, i64 0, i64 0
  store ptr @intra_pred_2_8, ptr %126, align 8, !tbaa !11
  %127 = load ptr, ptr %3, align 8, !tbaa !4
  %128 = getelementptr inbounds nuw %struct.HEVCPredContext, ptr %127, i32 0, i32 0
  %129 = getelementptr inbounds [4 x ptr], ptr %128, i64 0, i64 1
  store ptr @intra_pred_3_8, ptr %129, align 8, !tbaa !11
  %130 = load ptr, ptr %3, align 8, !tbaa !4
  %131 = getelementptr inbounds nuw %struct.HEVCPredContext, ptr %130, i32 0, i32 0
  %132 = getelementptr inbounds [4 x ptr], ptr %131, i64 0, i64 2
  store ptr @intra_pred_4_8, ptr %132, align 8, !tbaa !11
  %133 = load ptr, ptr %3, align 8, !tbaa !4
  %134 = getelementptr inbounds nuw %struct.HEVCPredContext, ptr %133, i32 0, i32 0
  %135 = getelementptr inbounds [4 x ptr], ptr %134, i64 0, i64 3
  store ptr @intra_pred_5_8, ptr %135, align 8, !tbaa !11
  %136 = load ptr, ptr %3, align 8, !tbaa !4
  %137 = getelementptr inbounds nuw %struct.HEVCPredContext, ptr %136, i32 0, i32 1
  %138 = getelementptr inbounds [4 x ptr], ptr %137, i64 0, i64 0
  store ptr @pred_planar_0_8, ptr %138, align 8, !tbaa !11
  %139 = load ptr, ptr %3, align 8, !tbaa !4
  %140 = getelementptr inbounds nuw %struct.HEVCPredContext, ptr %139, i32 0, i32 1
  %141 = getelementptr inbounds [4 x ptr], ptr %140, i64 0, i64 1
  store ptr @pred_planar_1_8, ptr %141, align 8, !tbaa !11
  %142 = load ptr, ptr %3, align 8, !tbaa !4
  %143 = getelementptr inbounds nuw %struct.HEVCPredContext, ptr %142, i32 0, i32 1
  %144 = getelementptr inbounds [4 x ptr], ptr %143, i64 0, i64 2
  store ptr @pred_planar_2_8, ptr %144, align 8, !tbaa !11
  %145 = load ptr, ptr %3, align 8, !tbaa !4
  %146 = getelementptr inbounds nuw %struct.HEVCPredContext, ptr %145, i32 0, i32 1
  %147 = getelementptr inbounds [4 x ptr], ptr %146, i64 0, i64 3
  store ptr @pred_planar_3_8, ptr %147, align 8, !tbaa !11
  %148 = load ptr, ptr %3, align 8, !tbaa !4
  %149 = getelementptr inbounds nuw %struct.HEVCPredContext, ptr %148, i32 0, i32 2
  store ptr @pred_dc_8, ptr %149, align 8, !tbaa !12
  %150 = load ptr, ptr %3, align 8, !tbaa !4
  %151 = getelementptr inbounds nuw %struct.HEVCPredContext, ptr %150, i32 0, i32 3
  %152 = getelementptr inbounds [4 x ptr], ptr %151, i64 0, i64 0
  store ptr @pred_angular_0_8, ptr %152, align 8, !tbaa !11
  %153 = load ptr, ptr %3, align 8, !tbaa !4
  %154 = getelementptr inbounds nuw %struct.HEVCPredContext, ptr %153, i32 0, i32 3
  %155 = getelementptr inbounds [4 x ptr], ptr %154, i64 0, i64 1
  store ptr @pred_angular_1_8, ptr %155, align 8, !tbaa !11
  %156 = load ptr, ptr %3, align 8, !tbaa !4
  %157 = getelementptr inbounds nuw %struct.HEVCPredContext, ptr %156, i32 0, i32 3
  %158 = getelementptr inbounds [4 x ptr], ptr %157, i64 0, i64 2
  store ptr @pred_angular_2_8, ptr %158, align 8, !tbaa !11
  %159 = load ptr, ptr %3, align 8, !tbaa !4
  %160 = getelementptr inbounds nuw %struct.HEVCPredContext, ptr %159, i32 0, i32 3
  %161 = getelementptr inbounds [4 x ptr], ptr %160, i64 0, i64 3
  store ptr @pred_angular_3_8, ptr %161, align 8, !tbaa !11
  br label %162

162:                                              ; preds = %123, %84, %45, %6
  ret void
}