; Function Attrs: mustprogress nofree norecurse nosync nounwind willreturn memory(argmem: write) uwtable
define void @ff_hevc_pred_init(ptr noundef writeonly captures(none) initializes((0, 104)) %0, i32 noundef %1) local_unnamed_addr #0 {
  %switch.tableidx = add i32 %1, -9
  %3 = icmp ult i32 %switch.tableidx, 4
  br i1 %3, label %switch.lookup, label %17

switch.lookup:                                    ; preds = %2
  %4 = zext nneg i32 %switch.tableidx to i64
  %switch.gep = getelementptr inbounds nuw [4 x ptr], ptr @switch.table.ff_hevc_pred_init, i64 0, i64 %4
  %switch.load = load ptr, ptr %switch.gep, align 8
  %5 = zext nneg i32 %switch.tableidx to i64
  %switch.gep52 = getelementptr inbounds nuw [4 x ptr], ptr @switch.table.ff_hevc_pred_init.1, i64 0, i64 %5
  %switch.load53 = load ptr, ptr %switch.gep52, align 8
  %6 = zext nneg i32 %switch.tableidx to i64
  %switch.gep54 = getelementptr inbounds nuw [4 x ptr], ptr @switch.table.ff_hevc_pred_init.2, i64 0, i64 %6
  %switch.load55 = load ptr, ptr %switch.gep54, align 8
  %7 = zext nneg i32 %switch.tableidx to i64
  %switch.gep56 = getelementptr inbounds nuw [4 x ptr], ptr @switch.table.ff_hevc_pred_init.3, i64 0, i64 %7
  %switch.load57 = load ptr, ptr %switch.gep56, align 8
  %8 = zext nneg i32 %switch.tableidx to i64
  %switch.gep58 = getelementptr inbounds nuw [4 x ptr], ptr @switch.table.ff_hevc_pred_init.4, i64 0, i64 %8
  %switch.load59 = load ptr, ptr %switch.gep58, align 8
  %9 = zext nneg i32 %switch.tableidx to i64
  %switch.gep60 = getelementptr inbounds nuw [4 x ptr], ptr @switch.table.ff_hevc_pred_init.5, i64 0, i64 %9
  %switch.load61 = load ptr, ptr %switch.gep60, align 8
  %10 = zext nneg i32 %switch.tableidx to i64
  %switch.gep62 = getelementptr inbounds nuw [4 x ptr], ptr @switch.table.ff_hevc_pred_init.6, i64 0, i64 %10
  %switch.load63 = load ptr, ptr %switch.gep62, align 8
  %11 = zext nneg i32 %switch.tableidx to i64
  %switch.gep64 = getelementptr inbounds nuw [4 x ptr], ptr @switch.table.ff_hevc_pred_init.7, i64 0, i64 %11
  %switch.load65 = load ptr, ptr %switch.gep64, align 8
  %12 = zext nneg i32 %switch.tableidx to i64
  %switch.gep66 = getelementptr inbounds nuw [4 x ptr], ptr @switch.table.ff_hevc_pred_init.8, i64 0, i64 %12
  %switch.load67 = load ptr, ptr %switch.gep66, align 8
  %13 = zext nneg i32 %switch.tableidx to i64
  %switch.gep68 = getelementptr inbounds nuw [4 x ptr], ptr @switch.table.ff_hevc_pred_init.9, i64 0, i64 %13
  %switch.load69 = load ptr, ptr %switch.gep68, align 8
  %14 = zext nneg i32 %switch.tableidx to i64
  %switch.gep70 = getelementptr inbounds nuw [4 x ptr], ptr @switch.table.ff_hevc_pred_init.10, i64 0, i64 %14
  %switch.load71 = load ptr, ptr %switch.gep70, align 8
  %15 = zext nneg i32 %switch.tableidx to i64
  %switch.gep72 = getelementptr inbounds nuw [4 x ptr], ptr @switch.table.ff_hevc_pred_init.11, i64 0, i64 %15
  %switch.load73 = load ptr, ptr %switch.gep72, align 8
  %16 = zext nneg i32 %switch.tableidx to i64
  %switch.gep74 = getelementptr inbounds nuw [4 x ptr], ptr @switch.table.ff_hevc_pred_init.12, i64 0, i64 %16
  %switch.load75 = load ptr, ptr %switch.gep74, align 8
  br label %17

17:                                               ; preds = %2, %switch.lookup
  %intra_pred_2_8.sink = phi ptr [ %switch.load, %switch.lookup ], [ @intra_pred_2_8, %2 ]
  %intra_pred_3_8.sink = phi ptr [ %switch.load53, %switch.lookup ], [ @intra_pred_3_8, %2 ]
  %intra_pred_4_8.sink = phi ptr [ %switch.load55, %switch.lookup ], [ @intra_pred_4_8, %2 ]
  %intra_pred_5_8.sink = phi ptr [ %switch.load57, %switch.lookup ], [ @intra_pred_5_8, %2 ]
  %pred_planar_0_8.sink = phi ptr [ %switch.load59, %switch.lookup ], [ @pred_planar_0_8, %2 ]
  %pred_planar_1_8.sink = phi ptr [ %switch.load61, %switch.lookup ], [ @pred_planar_1_8, %2 ]
  %pred_planar_2_8.sink = phi ptr [ %switch.load63, %switch.lookup ], [ @pred_planar_2_8, %2 ]
  %pred_planar_3_8.sink = phi ptr [ %switch.load65, %switch.lookup ], [ @pred_planar_3_8, %2 ]
  %pred_dc_8.sink = phi ptr [ %switch.load67, %switch.lookup ], [ @pred_dc_8, %2 ]
  %pred_angular_0_8.sink = phi ptr [ %switch.load69, %switch.lookup ], [ @pred_angular_0_8, %2 ]
  %pred_angular_1_8.sink = phi ptr [ %switch.load71, %switch.lookup ], [ @pred_angular_1_8, %2 ]
  %pred_angular_2_8.sink = phi ptr [ %switch.load73, %switch.lookup ], [ @pred_angular_2_8, %2 ]
  %pred_angular_3_8.sink = phi ptr [ %switch.load75, %switch.lookup ], [ @pred_angular_3_8, %2 ]
  %18 = getelementptr inbounds nuw i8, ptr %0, i64 96
  %19 = getelementptr inbounds nuw i8, ptr %0, i64 88
  %20 = getelementptr inbounds nuw i8, ptr %0, i64 80
  %21 = getelementptr inbounds nuw i8, ptr %0, i64 72
  %22 = getelementptr inbounds nuw i8, ptr %0, i64 64
  %23 = getelementptr inbounds nuw i8, ptr %0, i64 56
  %24 = getelementptr inbounds nuw i8, ptr %0, i64 48
  %25 = getelementptr inbounds nuw i8, ptr %0, i64 40
  %26 = getelementptr inbounds nuw i8, ptr %0, i64 32
  %27 = getelementptr inbounds nuw i8, ptr %0, i64 24
  %28 = getelementptr inbounds nuw i8, ptr %0, i64 16
  %29 = getelementptr inbounds nuw i8, ptr %0, i64 8
  store ptr %intra_pred_2_8.sink, ptr %0, align 8, !tbaa !4
  store ptr %intra_pred_3_8.sink, ptr %29, align 8, !tbaa !4
  store ptr %intra_pred_4_8.sink, ptr %28, align 8, !tbaa !4
  store ptr %intra_pred_5_8.sink, ptr %27, align 8, !tbaa !4
  store ptr %pred_planar_0_8.sink, ptr %26, align 8, !tbaa !4
  store ptr %pred_planar_1_8.sink, ptr %25, align 8, !tbaa !4
  store ptr %pred_planar_2_8.sink, ptr %24, align 8, !tbaa !4
  store ptr %pred_planar_3_8.sink, ptr %23, align 8, !tbaa !4
  store ptr %pred_dc_8.sink, ptr %22, align 8, !tbaa !8
  store ptr %pred_angular_0_8.sink, ptr %21, align 8, !tbaa !4
  store ptr %pred_angular_1_8.sink, ptr %20, align 8, !tbaa !4
  store ptr %pred_angular_2_8.sink, ptr %19, align 8, !tbaa !4
  store ptr %pred_angular_3_8.sink, ptr %18, align 8, !tbaa !4
  ret void
}